target datalayout = "e-m:e-p270:32:32-p271:32:32-p272:64:64-i64:64-i128:128-f80:128-n8:16:32:64-S128"
target triple = "x86_64-pc-linux-gnu"

%struct._OGLSDOps = type { %struct._SurfaceDataOps, ptr, ptr, i32, i32, i8, i8, i32, i32, i32, i32, i32, i32, i32, i32, i32, i32, i32 }
%struct._SurfaceDataOps = type { ptr, ptr, ptr, ptr, ptr, ptr, ptr }

@j2d_glDeleteRenderbuffersEXT = external global ptr, align 8
@j2d_glDeleteFramebuffersEXT = external global ptr, align 8
@j2d_glDeleteTextures = external global ptr, align 8

; Function Attrs: nounwind uwtable
define hidden void @OGLSD_Delete(ptr noundef %0, ptr noundef %1) #0 {
  %3 = alloca ptr, align 8
  %4 = alloca ptr, align 8
  store ptr %0, ptr %3, align 8
  store ptr %1, ptr %4, align 8
  %5 = load ptr, ptr %4, align 8
  %6 = getelementptr inbounds %struct._OGLSDOps, ptr %5, i32 0, i32 3
  %7 = load i32, ptr %6, align 8
  %8 = sext i32 %7 to i64
  %9 = icmp eq i64 %8, 3
  br i1 %9, label %10, label %22

10:                                               ; preds = %2
  %11 = load ptr, ptr %4, align 8
  %12 = getelementptr inbounds %struct._OGLSDOps, ptr %11, i32 0, i32 11
  %13 = load i32, ptr %12, align 4
  %14 = icmp ne i32 %13, 0
  br i1 %14, label %15, label %21

15:                                               ; preds = %10
  %16 = load ptr, ptr @j2d_glDeleteTextures, align 8
  %17 = load ptr, ptr %4, align 8
  %18 = getelementptr inbounds %struct._OGLSDOps, ptr %17, i32 0, i32 11
  call void %16(i32 noundef 1, ptr noundef %18)
  %19 = load ptr, ptr %4, align 8
  %20 = getelementptr inbounds %struct._OGLSDOps, ptr %19, i32 0, i32 11
  store i32 0, ptr %20, align 4
  br label %21

21:                                               ; preds = %15, %10
  br label %66

22:                                               ; preds = %2
  %23 = load ptr, ptr %4, align 8
  %24 = getelementptr inbounds %struct._OGLSDOps, ptr %23, i32 0, i32 3
  %25 = load i32, ptr %24, align 8
  %26 = sext i32 %25 to i64
  %27 = icmp eq i64 %26, 5
  br i1 %27, label %28, label %62

28:                                               ; preds = %22
  %29 = load ptr, ptr %4, align 8
  %30 = getelementptr inbounds %struct._OGLSDOps, ptr %29, i32 0, i32 11
  %31 = load i32, ptr %30, align 4
  %32 = icmp ne i32 %31, 0
  br i1 %32, label %33, label %39

33:                                               ; preds = %28
  %34 = load ptr, ptr @j2d_glDeleteTextures, align 8
  %35 = load ptr, ptr %4, align 8
  %36 = getelementptr inbounds %struct._OGLSDOps, ptr %35, i32 0, i32 11
  call void %34(i32 noundef 1, ptr noundef %36)
  %37 = load ptr, ptr %4, align 8
  %38 = getelementptr inbounds %struct._OGLSDOps, ptr %37, i32 0, i32 11
  store i32 0, ptr %38, align 4
  br label %39

39:                                               ; preds = %33, %28
  %40 = load ptr, ptr %4, align 8
  %41 = getelementptr inbounds %struct._OGLSDOps, ptr %40, i32 0, i32 17
  %42 = load i32, ptr %41, align 4
  %43 = icmp ne i32 %42, 0
  br i1 %43, label %44, label %50

44:                                               ; preds = %39
  %45 = load ptr, ptr @j2d_glDeleteRenderbuffersEXT, align 8
  %46 = load ptr, ptr %4, align 8
  %47 = getelementptr inbounds %struct._OGLSDOps, ptr %46, i32 0, i32 17
  call void %45(i32 noundef 1, ptr noundef %47)
  %48 = load ptr, ptr %4, align 8
  %49 = getelementptr inbounds %struct._OGLSDOps, ptr %48, i32 0, i32 17
  store i32 0, ptr %49, align 4
  br label %50

50:                                               ; preds = %44, %39
  %51 = load ptr, ptr %4, align 8
  %52 = getelementptr inbounds %struct._OGLSDOps, ptr %51, i32 0, i32 16
  %53 = load i32, ptr %52, align 8
  %54 = icmp ne i32 %53, 0
  br i1 %54, label %55, label %61

55:                                               ; preds = %50
  %56 = load ptr, ptr @j2d_glDeleteFramebuffersEXT, align 8
  %57 = load ptr, ptr %4, align 8
  %58 = getelementptr inbounds %struct._OGLSDOps, ptr %57, i32 0, i32 16
  call void %56(i32 noundef 1, ptr noundef %58)
  %59 = load ptr, ptr %4, align 8
  %60 = getelementptr inbounds %struct._OGLSDOps, ptr %59, i32 0, i32 16
  store i32 0, ptr %60, align 8
  br label %61

61:                                               ; preds = %55, %50
  br label %65

62:                                               ; preds = %22
  %63 = load ptr, ptr %3, align 8
  %64 = load ptr, ptr %4, align 8
  call void @OGLSD_DestroyOGLSurface(ptr noundef %63, ptr noundef %64)
  br label %65

65:                                               ; preds = %62, %61
  br label %66

66:                                               ; preds = %65, %21
  ret void
}