; Function Attrs: nounwind uwtable
define hidden void @OGLSD_Delete(ptr noundef %0, ptr noundef %1) local_unnamed_addr #1 {
  %3 = getelementptr inbounds i8, ptr %1, i64 72
  %4 = load i32, ptr %3, align 8
  switch i32 %4, label %25 [
    i32 3, label %5
    i32 5, label %10
  ]

5:                                                ; preds = %2
  %6 = getelementptr inbounds i8, ptr %1, i64 100
  %7 = load i32, ptr %6, align 4
  %.not18 = icmp eq i32 %7, 0
  br i1 %.not18, label %26, label %8

8:                                                ; preds = %5
  %9 = load ptr, ptr @j2d_glDeleteTextures, align 8
  tail call void %9(i32 noundef 1, ptr noundef nonnull %6) #3
  store i32 0, ptr %6, align 4
  br label %26

10:                                               ; preds = %2
  %11 = getelementptr inbounds i8, ptr %1, i64 100
  %12 = load i32, ptr %11, align 4
  %.not = icmp eq i32 %12, 0
  br i1 %.not, label %15, label %13

13:                                               ; preds = %10
  %14 = load ptr, ptr @j2d_glDeleteTextures, align 8
  tail call void %14(i32 noundef 1, ptr noundef nonnull %11) #3
  store i32 0, ptr %11, align 4
  br label %15

15:                                               ; preds = %13, %10
  %16 = getelementptr inbounds i8, ptr %1, i64 124
  %17 = load i32, ptr %16, align 4
  %.not16 = icmp eq i32 %17, 0
  br i1 %.not16, label %20, label %18

18:                                               ; preds = %15
  %19 = load ptr, ptr @j2d_glDeleteRenderbuffersEXT, align 8
  tail call void %19(i32 noundef 1, ptr noundef nonnull %16) #3
  store i32 0, ptr %16, align 4
  br label %20

20:                                               ; preds = %18, %15
  %21 = getelementptr inbounds i8, ptr %1, i64 120
  %22 = load i32, ptr %21, align 8
  %.not17 = icmp eq i32 %22, 0
  br i1 %.not17, label %26, label %23

23:                                               ; preds = %20
  %24 = load ptr, ptr @j2d_glDeleteFramebuffersEXT, align 8
  tail call void %24(i32 noundef 1, ptr noundef nonnull %21) #3
  store i32 0, ptr %21, align 8
  br label %26

25:                                               ; preds = %2
  tail call void @OGLSD_DestroyOGLSurface(ptr noundef %0, ptr noundef nonnull %1) #3
  br label %26

26:                                               ; preds = %25, %23, %20, %5, %8
  ret void
}